target datalayout = "e-m:e-p270:32:32-p271:32:32-p272:64:64-i64:64-i128:128-f80:128-n8:16:32:64-S128"
target triple = "x86_64-pc-linux-gnu"

%"class.cm::String" = type { %"class.std::shared_ptr", %"class.std::basic_string_view" }
%"class.std::shared_ptr" = type { %"class.std::__shared_ptr" }
%"class.std::__shared_ptr" = type { ptr, %"class.std::__shared_count" }
%"class.std::__shared_count" = type { ptr }
%"class.std::basic_string_view" = type { i64, ptr }

; Function Attrs: mustprogress nounwind uwtable
define linkonce_odr dso_local { i64, ptr } @_ZNK2cm6String4viewEv(ptr noundef nonnull align 8 dereferenceable(32) %0) #1 comdat align 2 {
  %2 = alloca %"class.std::basic_string_view", align 8
  %3 = alloca ptr, align 8
  store ptr %0, ptr %3, align 8, !tbaa !9
  %4 = load ptr, ptr %3, align 8
  %5 = getelementptr inbounds nuw %"class.cm::String", ptr %4, i32 0, i32 1
  call void @llvm.memcpy.p0.p0.i64(ptr align 8 %2, ptr align 8 %5, i64 16, i1 false), !tbaa.struct !15
  %6 = load { i64, ptr }, ptr %2, align 8
  ret { i64, ptr } %6
}

; Function Attrs: mustprogress nounwind uwtable
define dso_local { i64, ptr } @_ZN2cm12AsStringViewINS_6StringEE4viewERKS1_(ptr noundef nonnull align 8 dereferenceable(32) %0) #1 align 2 {
  %2 = alloca %"class.std::basic_string_view", align 8
  %3 = alloca ptr, align 8
  store ptr %0, ptr %3, align 8, !tbaa !9
  %4 = load ptr, ptr %3, align 8, !tbaa !9
  %5 = call { i64, ptr } @_ZNK2cm6String4viewEv(ptr noundef nonnull align 8 dereferenceable(32) %4) #2
  %6 = getelementptr inbounds nuw { i64, ptr }, ptr %2, i32 0, i32 0
  %7 = extractvalue { i64, ptr } %5, 0
  store i64 %7, ptr %6, align 8
  %8 = getelementptr inbounds nuw { i64, ptr }, ptr %2, i32 0, i32 1
  %9 = extractvalue { i64, ptr } %5, 1
  store ptr %9, ptr %8, align 8
  %10 = load { i64, ptr }, ptr %2, align 8
  ret { i64, ptr } %10
}