; Function Attrs: mustprogress nofree norecurse nosync nounwind willreturn memory(argmem: read) uwtable
define dso_local { i64, ptr } @_ZN2cm12AsStringViewINS_6StringEE4viewERKS1_(ptr noundef nonnull readonly align 8 captures(none) dereferenceable(32) %0) local_unnamed_addr #9 align 2 {
  %2 = getelementptr inbounds nuw i8, ptr %0, i64 16
  %.sroa.0.0.copyload.i = load i64, ptr %2, align 8, !tbaa !29
  %.sroa.2.0..sroa_idx.i = getelementptr inbounds nuw i8, ptr %0, i64 24
  %.sroa.2.0.copyload.i = load ptr, ptr %.sroa.2.0..sroa_idx.i, align 8, !tbaa !30
  %.fca.0.insert.i = insertvalue { i64, ptr } poison, i64 %.sroa.0.0.copyload.i, 0
  %.fca.1.insert.i = insertvalue { i64, ptr } %.fca.0.insert.i, ptr %.sroa.2.0.copyload.i, 1
  ret { i64, ptr } %.fca.1.insert.i
}